; Function Attrs: mustprogress nofree norecurse nosync nounwind willreturn memory(read, inaccessiblemem: none) uwtable
define dso_local noundef zeroext i1 @_ZN5clang6format19UnwrappedLineParser11isOnNewLineERKNS0_11FormatTokenE(ptr nocapture noundef nonnull readonly align 8 dereferenceable(3592) %0, ptr nocapture noundef nonnull readonly align 8 dereferenceable(305) %1) local_unnamed_addr #5 align 2 {
  %3 = load ptr, ptr %0, align 8
  %4 = getelementptr inbounds nuw i8, ptr %3, i64 32
  %5 = load i8, ptr %4, align 8
  %6 = trunc i8 %5 to i1
  br i1 %6, label %11, label %7

7:                                                ; preds = %2
  %8 = getelementptr inbounds nuw i8, ptr %1, i64 64
  %9 = load i8, ptr %8, align 8
  %10 = and i8 %9, 1
  %.not = icmp eq i8 %10, 0
  br i1 %.not, label %15, label %11

11:                                               ; preds = %7, %2
  %12 = getelementptr inbounds nuw i8, ptr %1, i64 72
  %13 = load i32, ptr %12, align 8
  %14 = icmp ne i32 %13, 0
  br label %15

15:                                               ; preds = %11, %7
  %16 = phi i1 [ false, %7 ], [ %14, %11 ]
  ret i1 %16
}